target datalayout = "e-m:e-p270:32:32-p271:32:32-p272:64:64-i64:64-i128:128-f80:128-n8:16:32:64-S128"
target triple = "x86_64-unknown-linux-gnu"

%"class.grpc_core::DebugLocation" = type { i8 }
%"class.absl::lts_20230802::Status" = type { i64 }
%struct.grpc_closure = type { %union.anon, ptr, ptr, %union.anon.0 }
%union.anon = type { ptr }
%union.anon.0 = type { i64 }
%struct.grpc_transport_stream_op_batch = type { ptr, ptr, i8, %struct.grpc_handler_private_op_data }
%struct.grpc_handler_private_op_data = type { ptr, %struct.grpc_closure }
%struct.grpc_transport_stream_op_batch_payload = type { %struct.anon.2, %struct.anon.3, %struct.anon.4, %struct.anon.5, %struct.anon.6, %struct.anon.7, %struct.anon.8, ptr }
%struct.anon.2 = type { ptr }
%struct.anon.3 = type { ptr, ptr }
%struct.anon.4 = type <{ ptr, i32, i8, [3 x i8] }>
%struct.anon.5 = type { ptr, ptr, ptr }
%struct.anon.6 = type { ptr, ptr, ptr, ptr }
%struct.anon.7 = type { ptr, ptr, ptr }
%struct.anon.8 = type <{ %"class.absl::lts_20230802::Status", i8, [7 x i8] }>
%"class.std::__cxx11::basic_string" = type { %"struct.std::__cxx11::basic_string<char>::_Alloc_hider", i64, %union.anon.30 }
%"struct.std::__cxx11::basic_string<char>::_Alloc_hider" = type { ptr }
%union.anon.30 = type { i64, [8 x i8] }
%"struct.absl::lts_20230802::status_internal::StatusRep" = type { %"struct.std::atomic.119", i32, %"class.std::__cxx11::basic_string", %"class.std::unique_ptr.121" }
%"struct.std::atomic.119" = type { %"struct.std::__atomic_base.120" }
%"struct.std::__atomic_base.120" = type { i32 }
%"class.std::unique_ptr.121" = type { %"struct.std::__uniq_ptr_data.122" }
%"struct.std::__uniq_ptr_data.122" = type { %"class.std::__uniq_ptr_impl.123" }
%"class.std::__uniq_ptr_impl.123" = type { %"class.std::tuple.124" }
%"class.std::tuple.124" = type { %"struct.std::_Tuple_impl.125" }
%"struct.std::_Tuple_impl.125" = type { %"struct.std::_Head_base.128" }
%"struct.std::_Head_base.128" = type { ptr }

@.str = private unnamed_addr constant [123 x i8] c"generated/home/dtcxzyw/WorkSpace/Projects/compilers/llvm-opt-benchmark/bench/grpc/grpc/src/core/lib/transport/transport.cc\00", align 1

; Function Attrs: mustprogress nounwind uwtable
define linkonce_odr noundef ptr @_ZN4absl12lts_202308026Status12RepToPointerEm(i64 noundef %rep) #5 comdat align 2 {
entry:
  %rep.addr = alloca i64, align 8
  store i64 %rep, ptr %rep.addr, align 8
  %0 = load i64, ptr %rep.addr, align 8
  %sub = sub i64 %0, 1
  %1 = inttoptr i64 %sub to ptr
  ret ptr %1
}

; Function Attrs: mustprogress nounwind uwtable
define linkonce_odr noundef zeroext i1 @_ZN4absl12lts_202308026Status9IsInlinedEm(i64 noundef %rep) #5 comdat align 2 {
entry:
  %rep.addr = alloca i64, align 8
  store i64 %rep, ptr %rep.addr, align 8
  %0 = load i64, ptr %rep.addr, align 8
  %and = and i64 %0, 1
  %cmp = icmp eq i64 %and, 0
  ret i1 %cmp
}

; Function Attrs: mustprogress uwtable
define linkonce_odr void @_ZN4absl12lts_202308026Status3RefEm(i64 noundef %rep) #4 comdat align 2 {
entry:
  %this.addr.i = alloca ptr, align 8
  %__i.addr.i = alloca i32, align 4
  %__m.addr.i = alloca i32, align 4
  %.atomictmp.i = alloca i32, align 4
  %atomic-temp.i = alloca i32, align 4
  %rep.addr = alloca i64, align 8
  store i64 %rep, ptr %rep.addr, align 8
  %0 = load i64, ptr %rep.addr, align 8
  %call = call noundef zeroext i1 @_ZN4absl12lts_202308026Status9IsInlinedEm(i64 noundef %0)
  br i1 %call, label %if.end, label %if.then

if.then:                                          ; preds = %entry
  %1 = load i64, ptr %rep.addr, align 8
  %call1 = call noundef ptr @_ZN4absl12lts_202308026Status12RepToPointerEm(i64 noundef %1)
  %ref = getelementptr inbounds %"struct.absl::lts_20230802::status_internal::StatusRep", ptr %call1, i32 0, i32 0
  store ptr %ref, ptr %this.addr.i, align 8
  store i32 1, ptr %__i.addr.i, align 4
  store i32 0, ptr %__m.addr.i, align 4
  %this1.i = load ptr, ptr %this.addr.i, align 8
  %2 = load i32, ptr %__m.addr.i, align 4
  %3 = load i32, ptr %__i.addr.i, align 4
  store i32 %3, ptr %.atomictmp.i, align 4
  switch i32 %2, label %monotonic.i [
    i32 1, label %acquire.i
    i32 2, label %acquire.i
    i32 3, label %release.i
    i32 4, label %acqrel.i
    i32 5, label %seqcst.i
  ]

monotonic.i:                                      ; preds = %if.then
  %4 = load i32, ptr %.atomictmp.i, align 4
  %5 = atomicrmw add ptr %this1.i, i32 %4 monotonic, align 4
  store i32 %5, ptr %atomic-temp.i, align 4
  br label %_ZNSt13__atomic_baseIiE9fetch_addEiSt12memory_order.exit

acquire.i:                                        ; preds = %if.then, %if.then
  %6 = load i32, ptr %.atomictmp.i, align 4
  %7 = atomicrmw add ptr %this1.i, i32 %6 acquire, align 4
  store i32 %7, ptr %atomic-temp.i, align 4
  br label %_ZNSt13__atomic_baseIiE9fetch_addEiSt12memory_order.exit

release.i:                                        ; preds = %if.then
  %8 = load i32, ptr %.atomictmp.i, align 4
  %9 = atomicrmw add ptr %this1.i, i32 %8 release, align 4
  store i32 %9, ptr %atomic-temp.i, align 4
  br label %_ZNSt13__atomic_baseIiE9fetch_addEiSt12memory_order.exit

acqrel.i:                                         ; preds = %if.then
  %10 = load i32, ptr %.atomictmp.i, align 4
  %11 = atomicrmw add ptr %this1.i, i32 %10 acq_rel, align 4
  store i32 %11, ptr %atomic-temp.i, align 4
  br label %_ZNSt13__atomic_baseIiE9fetch_addEiSt12memory_order.exit

seqcst.i:                                         ; preds = %if.then
  %12 = load i32, ptr %.atomictmp.i, align 4
  %13 = atomicrmw add ptr %this1.i, i32 %12 seq_cst, align 4
  store i32 %13, ptr %atomic-temp.i, align 4
  br label %_ZNSt13__atomic_baseIiE9fetch_addEiSt12memory_order.exit

_ZNSt13__atomic_baseIiE9fetch_addEiSt12memory_order.exit: ; preds = %seqcst.i, %acqrel.i, %release.i, %acquire.i, %monotonic.i
  br label %if.end

if.end:                                           ; preds = %_ZNSt13__atomic_baseIiE9fetch_addEiSt12memory_order.exit, %entry
  ret void
}

; Function Attrs: mustprogress uwtable
define linkonce_odr void @_ZN4absl12lts_202308026StatusC2ERKS1_(ptr noundef nonnull align 8 dereferenceable(8) %this, ptr noundef nonnull align 8 dereferenceable(8) %x) unnamed_addr #4 comdat align 2 {
entry:
  %this.addr = alloca ptr, align 8
  %x.addr = alloca ptr, align 8
  store ptr %this, ptr %this.addr, align 8
  store ptr %x, ptr %x.addr, align 8
  %this1 = load ptr, ptr %this.addr, align 8
  %rep_ = getelementptr inbounds %"class.absl::lts_20230802::Status", ptr %this1, i32 0, i32 0
  %0 = load ptr, ptr %x.addr, align 8
  %rep_2 = getelementptr inbounds %"class.absl::lts_20230802::Status", ptr %0, i32 0, i32 0
  %1 = load i64, ptr %rep_2, align 8
  store i64 %1, ptr %rep_, align 8
  %rep_3 = getelementptr inbounds %"class.absl::lts_20230802::Status", ptr %this1, i32 0, i32 0
  %2 = load i64, ptr %rep_3, align 8
  call void @_ZN4absl12lts_202308026Status3RefEm(i64 noundef %2)
  ret void
}

; Function Attrs: mustprogress nounwind uwtable
define linkonce_odr void @_ZN9grpc_core13DebugLocationC2EPKci(ptr noundef nonnull align 1 dereferenceable(1) %this, ptr noundef %0, i32 noundef %1) unnamed_addr #5 comdat align 2 {
entry:
  %this.addr = alloca ptr, align 8
  %.addr = alloca ptr, align 8
  %.addr1 = alloca i32, align 4
  store ptr %this, ptr %this.addr, align 8
  store ptr %0, ptr %.addr, align 8
  store i32 %1, ptr %.addr1, align 4
  ret void
}

; Function Attrs: mustprogress uwtable
define void @_Z65grpc_transport_stream_op_batch_finish_with_failure_from_transportP30grpc_transport_stream_op_batchN4absl12lts_202308026StatusE(ptr noundef %batch, ptr noundef %error) #4 personality ptr @__gxx_personality_v0 {
entry:
  %batch.addr = alloca ptr, align 8
  %error.indirect_addr = alloca ptr, align 8
  %ref.tmp = alloca %"class.grpc_core::DebugLocation", align 1
  %agg.tmp = alloca %"class.absl::lts_20230802::Status", align 8
  %exn.slot = alloca ptr, align 8
  %ehselector.slot = alloca i32, align 4
  %ref.tmp7 = alloca %"class.grpc_core::DebugLocation", align 1
  %agg.tmp10 = alloca %"class.absl::lts_20230802::Status", align 8
  %ref.tmp19 = alloca %"class.grpc_core::DebugLocation", align 1
  %agg.tmp22 = alloca %"class.absl::lts_20230802::Status", align 8
  %ref.tmp27 = alloca %"class.grpc_core::DebugLocation", align 1
  %agg.tmp29 = alloca %"class.absl::lts_20230802::Status", align 8
  store ptr %batch, ptr %batch.addr, align 8
  store ptr %error, ptr %error.indirect_addr, align 8
  %0 = load ptr, ptr %batch.addr, align 8
  %recv_initial_metadata = getelementptr inbounds %struct.grpc_transport_stream_op_batch, ptr %0, i32 0, i32 2
  %bf.load = load i8, ptr %recv_initial_metadata, align 8
  %bf.lshr = lshr i8 %bf.load, 3
  %bf.clear = and i8 %bf.lshr, 1
  %bf.cast = trunc i8 %bf.clear to i1
  br i1 %bf.cast, label %if.then, label %if.end

if.then:                                          ; preds = %entry
  call void @_ZN9grpc_core13DebugLocationC2EPKci(ptr noundef nonnull align 1 dereferenceable(1) %ref.tmp, ptr noundef @.str, i32 noundef 168)
  %1 = load ptr, ptr %batch.addr, align 8
  %payload = getelementptr inbounds %struct.grpc_transport_stream_op_batch, ptr %1, i32 0, i32 1
  %2 = load ptr, ptr %payload, align 8
  %recv_initial_metadata1 = getelementptr inbounds %struct.grpc_transport_stream_op_batch_payload, ptr %2, i32 0, i32 3
  %recv_initial_metadata_ready = getelementptr inbounds %struct.anon.5, ptr %recv_initial_metadata1, i32 0, i32 1
  %3 = load ptr, ptr %recv_initial_metadata_ready, align 8
  call void @_ZN4absl12lts_202308026StatusC2ERKS1_(ptr noundef nonnull align 8 dereferenceable(8) %agg.tmp, ptr noundef nonnull align 8 dereferenceable(8) %error)
  invoke void @_ZN9grpc_core7ExecCtx3RunERKNS_13DebugLocationEP12grpc_closureN4absl12lts_202308026StatusE(ptr noundef nonnull align 1 dereferenceable(1) %ref.tmp, ptr noundef %3, ptr noundef %agg.tmp)
          to label %invoke.cont unwind label %lpad

invoke.cont:                                      ; preds = %if.then
  call void @_ZN4absl12lts_202308026StatusD2Ev(ptr noundef nonnull align 8 dereferenceable(8) %agg.tmp) #3
  br label %if.end

lpad:                                             ; preds = %if.then
  %4 = landingpad { ptr, i32 }
          cleanup
  %5 = extractvalue { ptr, i32 } %4, 0
  store ptr %5, ptr %exn.slot, align 8
  %6 = extractvalue { ptr, i32 } %4, 1
  store i32 %6, ptr %ehselector.slot, align 4
  call void @_ZN4absl12lts_202308026StatusD2Ev(ptr noundef nonnull align 8 dereferenceable(8) %agg.tmp) #3
  br label %eh.resume

if.end:                                           ; preds = %invoke.cont, %entry
  %7 = load ptr, ptr %batch.addr, align 8
  %recv_message = getelementptr inbounds %struct.grpc_transport_stream_op_batch, ptr %7, i32 0, i32 2
  %bf.load2 = load i8, ptr %recv_message, align 8
  %bf.lshr3 = lshr i8 %bf.load2, 4
  %bf.clear4 = and i8 %bf.lshr3, 1
  %bf.cast5 = trunc i8 %bf.clear4 to i1
  br i1 %bf.cast5, label %if.then6, label %if.end13

if.then6:                                         ; preds = %if.end
  call void @_ZN9grpc_core13DebugLocationC2EPKci(ptr noundef nonnull align 1 dereferenceable(1) %ref.tmp7, ptr noundef @.str, i32 noundef 174)
  %8 = load ptr, ptr %batch.addr, align 8
  %payload8 = getelementptr inbounds %struct.grpc_transport_stream_op_batch, ptr %8, i32 0, i32 1
  %9 = load ptr, ptr %payload8, align 8
  %recv_message9 = getelementptr inbounds %struct.grpc_transport_stream_op_batch_payload, ptr %9, i32 0, i32 4
  %recv_message_ready = getelementptr inbounds %struct.anon.6, ptr %recv_message9, i32 0, i32 3
  %10 = load ptr, ptr %recv_message_ready, align 8
  call void @_ZN4absl12lts_202308026StatusC2ERKS1_(ptr noundef nonnull align 8 dereferenceable(8) %agg.tmp10, ptr noundef nonnull align 8 dereferenceable(8) %error)
  invoke void @_ZN9grpc_core7ExecCtx3RunERKNS_13DebugLocationEP12grpc_closureN4absl12lts_202308026StatusE(ptr noundef nonnull align 1 dereferenceable(1) %ref.tmp7, ptr noundef %10, ptr noundef %agg.tmp10)
          to label %invoke.cont12 unwind label %lpad11

invoke.cont12:                                    ; preds = %if.then6
  call void @_ZN4absl12lts_202308026StatusD2Ev(ptr noundef nonnull align 8 dereferenceable(8) %agg.tmp10) #3
  br label %if.end13

lpad11:                                           ; preds = %if.then6
  %11 = landingpad { ptr, i32 }
          cleanup
  %12 = extractvalue { ptr, i32 } %11, 0
  store ptr %12, ptr %exn.slot, align 8
  %13 = extractvalue { ptr, i32 } %11, 1
  store i32 %13, ptr %ehselector.slot, align 4
  call void @_ZN4absl12lts_202308026StatusD2Ev(ptr noundef nonnull align 8 dereferenceable(8) %agg.tmp10) #3
  br label %eh.resume

if.end13:                                         ; preds = %invoke.cont12, %if.end
  %14 = load ptr, ptr %batch.addr, align 8
  %recv_trailing_metadata = getelementptr inbounds %struct.grpc_transport_stream_op_batch, ptr %14, i32 0, i32 2
  %bf.load14 = load i8, ptr %recv_trailing_metadata, align 8
  %bf.lshr15 = lshr i8 %bf.load14, 5
  %bf.clear16 = and i8 %bf.lshr15, 1
  %bf.cast17 = trunc i8 %bf.clear16 to i1
  br i1 %bf.cast17, label %if.then18, label %if.end25

if.then18:                                        ; preds = %if.end13
  call void @_ZN9grpc_core13DebugLocationC2EPKci(ptr noundef nonnull align 1 dereferenceable(1) %ref.tmp19, ptr noundef @.str, i32 noundef 178)
  %15 = load ptr, ptr %batch.addr, align 8
  %payload20 = getelementptr inbounds %struct.grpc_transport_stream_op_batch, ptr %15, i32 0, i32 1
  %16 = load ptr, ptr %payload20, align 8
  %recv_trailing_metadata21 = getelementptr inbounds %struct.grpc_transport_stream_op_batch_payload, ptr %16, i32 0, i32 5
  %recv_trailing_metadata_ready = getelementptr inbounds %struct.anon.7, ptr %recv_trailing_metadata21, i32 0, i32 2
  %17 = load ptr, ptr %recv_trailing_metadata_ready, align 8
  call void @_ZN4absl12lts_202308026StatusC2ERKS1_(ptr noundef nonnull align 8 dereferenceable(8) %agg.tmp22, ptr noundef nonnull align 8 dereferenceable(8) %error)
  invoke void @_ZN9grpc_core7ExecCtx3RunERKNS_13DebugLocationEP12grpc_closureN4absl12lts_202308026StatusE(ptr noundef nonnull align 1 dereferenceable(1) %ref.tmp19, ptr noundef %17, ptr noundef %agg.tmp22)
          to label %invoke.cont24 unwind label %lpad23

invoke.cont24:                                    ; preds = %if.then18
  call void @_ZN4absl12lts_202308026StatusD2Ev(ptr noundef nonnull align 8 dereferenceable(8) %agg.tmp22) #3
  br label %if.end25

lpad23:                                           ; preds = %if.then18
  %18 = landingpad { ptr, i32 }
          cleanup
  %19 = extractvalue { ptr, i32 } %18, 0
  store ptr %19, ptr %exn.slot, align 8
  %20 = extractvalue { ptr, i32 } %18, 1
  store i32 %20, ptr %ehselector.slot, align 4
  call void @_ZN4absl12lts_202308026StatusD2Ev(ptr noundef nonnull align 8 dereferenceable(8) %agg.tmp22) #3
  br label %eh.resume

if.end25:                                         ; preds = %invoke.cont24, %if.end13
  %21 = load ptr, ptr %batch.addr, align 8
  %on_complete = getelementptr inbounds %struct.grpc_transport_stream_op_batch, ptr %21, i32 0, i32 0
  %22 = load ptr, ptr %on_complete, align 8
  %cmp = icmp ne ptr %22, null
  br i1 %cmp, label %if.then26, label %if.end32

if.then26:                                        ; preds = %if.end25
  call void @_ZN9grpc_core13DebugLocationC2EPKci(ptr noundef nonnull align 1 dereferenceable(1) %ref.tmp27, ptr noundef @.str, i32 noundef 183)
  %23 = load ptr, ptr %batch.addr, align 8
  %on_complete28 = getelementptr inbounds %struct.grpc_transport_stream_op_batch, ptr %23, i32 0, i32 0
  %24 = load ptr, ptr %on_complete28, align 8
  call void @_ZN4absl12lts_202308026StatusC2ERKS1_(ptr noundef nonnull align 8 dereferenceable(8) %agg.tmp29, ptr noundef nonnull align 8 dereferenceable(8) %error)
  invoke void @_ZN9grpc_core7ExecCtx3RunERKNS_13DebugLocationEP12grpc_closureN4absl12lts_202308026StatusE(ptr noundef nonnull align 1 dereferenceable(1) %ref.tmp27, ptr noundef %24, ptr noundef %agg.tmp29)
          to label %invoke.cont31 unwind label %lpad30

invoke.cont31:                                    ; preds = %if.then26
  call void @_ZN4absl12lts_202308026StatusD2Ev(ptr noundef nonnull align 8 dereferenceable(8) %agg.tmp29) #3
  br label %if.end32

lpad30:                                           ; preds = %if.then26
  %25 = landingpad { ptr, i32 }
          cleanup
  %26 = extractvalue { ptr, i32 } %25, 0
  store ptr %26, ptr %exn.slot, align 8
  %27 = extractvalue { ptr, i32 } %25, 1
  store i32 %27, ptr %ehselector.slot, align 4
  call void @_ZN4absl12lts_202308026StatusD2Ev(ptr noundef nonnull align 8 dereferenceable(8) %agg.tmp29) #3
  br label %eh.resume

if.end32:                                         ; preds = %invoke.cont31, %if.end25
  ret void

eh.resume:                                        ; preds = %lpad30, %lpad23, %lpad11, %lpad
  %exn = load ptr, ptr %exn.slot, align 8
  %sel = load i32, ptr %ehselector.slot, align 4
  %lpad.val = insertvalue { ptr, i32 } poison, ptr %exn, 0
  %lpad.val33 = insertvalue { ptr, i32 } %lpad.val, i32 %sel, 1
  resume { ptr, i32 } %lpad.val33
}