; Function Attrs: mustprogress uwtable
define void @_Z65grpc_transport_stream_op_batch_finish_with_failure_from_transportP30grpc_transport_stream_op_batchN4absl12lts_202308026StatusE(ptr nocapture noundef readonly %batch, ptr nocapture noundef readonly %error) local_unnamed_addr #5 personality ptr @__gxx_personality_v0 {
entry:
  %ref.tmp = alloca %"class.grpc_core::DebugLocation", align 1
  %agg.tmp = alloca %"class.absl::lts_20230802::Status", align 8
  %ref.tmp7 = alloca %"class.grpc_core::DebugLocation", align 1
  %agg.tmp10 = alloca %"class.absl::lts_20230802::Status", align 8
  %ref.tmp19 = alloca %"class.grpc_core::DebugLocation", align 1
  %agg.tmp22 = alloca %"class.absl::lts_20230802::Status", align 8
  %ref.tmp27 = alloca %"class.grpc_core::DebugLocation", align 1
  %agg.tmp29 = alloca %"class.absl::lts_20230802::Status", align 8
  %recv_initial_metadata = getelementptr inbounds i8, ptr %batch, i64 16
  %bf.load = load i8, ptr %recv_initial_metadata, align 8
  %0 = and i8 %bf.load, 8
  %bf.cast.not = icmp eq i8 %0, 0
  br i1 %bf.cast.not, label %if.end, label %if.then

if.then:                                          ; preds = %entry
  %payload = getelementptr inbounds i8, ptr %batch, i64 8
  %1 = load ptr, ptr %payload, align 8
  %recv_initial_metadata_ready = getelementptr inbounds i8, ptr %1, i64 48
  %2 = load ptr, ptr %recv_initial_metadata_ready, align 8
  %3 = load i64, ptr %error, align 8
  store i64 %3, ptr %agg.tmp, align 8
  %and.i.i.i = and i64 %3, 1
  %cmp.i.i.i = icmp eq i64 %and.i.i.i, 0
  br i1 %cmp.i.i.i, label %_ZN4absl12lts_202308026StatusC2ERKS1_.exit, label %if.then.i.i

if.then.i.i:                                      ; preds = %if.then
  %sub.i.i.i = add nsw i64 %3, -1
  %4 = inttoptr i64 %sub.i.i.i to ptr
  %5 = atomicrmw add ptr %4, i32 1 monotonic, align 4
  br label %_ZN4absl12lts_202308026StatusC2ERKS1_.exit

_ZN4absl12lts_202308026StatusC2ERKS1_.exit:       ; preds = %if.then, %if.then.i.i
  invoke void @_ZN9grpc_core7ExecCtx3RunERKNS_13DebugLocationEP12grpc_closureN4absl12lts_202308026StatusE(ptr noundef nonnull align 1 dereferenceable(1) %ref.tmp, ptr noundef %2, ptr noundef nonnull %agg.tmp)
          to label %invoke.cont unwind label %lpad

invoke.cont:                                      ; preds = %_ZN4absl12lts_202308026StatusC2ERKS1_.exit
  %6 = load i64, ptr %agg.tmp, align 8
  %and.i.i.i9 = and i64 %6, 1
  %cmp.i.i.i10 = icmp eq i64 %and.i.i.i9, 0
  br i1 %cmp.i.i.i10, label %if.end, label %if.then.i.i11

if.then.i.i11:                                    ; preds = %invoke.cont
  invoke void @_ZN4absl12lts_202308026Status15UnrefNonInlinedEm(i64 noundef %6)
          to label %if.end unwind label %terminate.lpad.i

terminate.lpad.i:                                 ; preds = %if.then.i.i11
  %7 = landingpad { ptr, i32 }
          catch ptr null
  %8 = extractvalue { ptr, i32 } %7, 0
  call void @__clang_call_terminate(ptr %8) #24
  unreachable

lpad:                                             ; preds = %_ZN4absl12lts_202308026StatusC2ERKS1_.exit
  %9 = landingpad { ptr, i32 }
          cleanup
  br label %eh.resume

if.end:                                           ; preds = %if.then.i.i11, %invoke.cont, %entry
  %bf.load2 = load i8, ptr %recv_initial_metadata, align 8
  %10 = and i8 %bf.load2, 16
  %bf.cast5.not = icmp eq i8 %10, 0
  br i1 %bf.cast5.not, label %if.end13, label %if.then6

if.then6:                                         ; preds = %if.end
  %payload8 = getelementptr inbounds i8, ptr %batch, i64 8
  %11 = load ptr, ptr %payload8, align 8
  %recv_message_ready = getelementptr inbounds i8, ptr %11, i64 88
  %12 = load ptr, ptr %recv_message_ready, align 8
  %13 = load i64, ptr %error, align 8
  store i64 %13, ptr %agg.tmp10, align 8
  %and.i.i.i12 = and i64 %13, 1
  %cmp.i.i.i13 = icmp eq i64 %and.i.i.i12, 0
  br i1 %cmp.i.i.i13, label %_ZN4absl12lts_202308026StatusC2ERKS1_.exit16, label %if.then.i.i14

if.then.i.i14:                                    ; preds = %if.then6
  %sub.i.i.i15 = add nsw i64 %13, -1
  %14 = inttoptr i64 %sub.i.i.i15 to ptr
  %15 = atomicrmw add ptr %14, i32 1 monotonic, align 4
  br label %_ZN4absl12lts_202308026StatusC2ERKS1_.exit16

_ZN4absl12lts_202308026StatusC2ERKS1_.exit16:     ; preds = %if.then6, %if.then.i.i14
  invoke void @_ZN9grpc_core7ExecCtx3RunERKNS_13DebugLocationEP12grpc_closureN4absl12lts_202308026StatusE(ptr noundef nonnull align 1 dereferenceable(1) %ref.tmp7, ptr noundef %12, ptr noundef nonnull %agg.tmp10)
          to label %invoke.cont12 unwind label %lpad11

invoke.cont12:                                    ; preds = %_ZN4absl12lts_202308026StatusC2ERKS1_.exit16
  %16 = load i64, ptr %agg.tmp10, align 8
  %and.i.i.i17 = and i64 %16, 1
  %cmp.i.i.i18 = icmp eq i64 %and.i.i.i17, 0
  br i1 %cmp.i.i.i18, label %if.end13, label %if.then.i.i19

if.then.i.i19:                                    ; preds = %invoke.cont12
  invoke void @_ZN4absl12lts_202308026Status15UnrefNonInlinedEm(i64 noundef %16)
          to label %if.end13 unwind label %terminate.lpad.i20

terminate.lpad.i20:                               ; preds = %if.then.i.i19
  %17 = landingpad { ptr, i32 }
          catch ptr null
  %18 = extractvalue { ptr, i32 } %17, 0
  call void @__clang_call_terminate(ptr %18) #24
  unreachable

lpad11:                                           ; preds = %_ZN4absl12lts_202308026StatusC2ERKS1_.exit16
  %19 = landingpad { ptr, i32 }
          cleanup
  br label %eh.resume

if.end13:                                         ; preds = %if.then.i.i19, %invoke.cont12, %if.end
  %bf.load14 = load i8, ptr %recv_initial_metadata, align 8
  %20 = and i8 %bf.load14, 32
  %bf.cast17.not = icmp eq i8 %20, 0
  br i1 %bf.cast17.not, label %if.end25, label %if.then18

if.then18:                                        ; preds = %if.end13
  %payload20 = getelementptr inbounds i8, ptr %batch, i64 8
  %21 = load ptr, ptr %payload20, align 8
  %recv_trailing_metadata_ready = getelementptr inbounds i8, ptr %21, i64 112
  %22 = load ptr, ptr %recv_trailing_metadata_ready, align 8
  %23 = load i64, ptr %error, align 8
  store i64 %23, ptr %agg.tmp22, align 8
  %and.i.i.i22 = and i64 %23, 1
  %cmp.i.i.i23 = icmp eq i64 %and.i.i.i22, 0
  br i1 %cmp.i.i.i23, label %_ZN4absl12lts_202308026StatusC2ERKS1_.exit26, label %if.then.i.i24

if.then.i.i24:                                    ; preds = %if.then18
  %sub.i.i.i25 = add nsw i64 %23, -1
  %24 = inttoptr i64 %sub.i.i.i25 to ptr
  %25 = atomicrmw add ptr %24, i32 1 monotonic, align 4
  br label %_ZN4absl12lts_202308026StatusC2ERKS1_.exit26

_ZN4absl12lts_202308026StatusC2ERKS1_.exit26:     ; preds = %if.then18, %if.then.i.i24
  invoke void @_ZN9grpc_core7ExecCtx3RunERKNS_13DebugLocationEP12grpc_closureN4absl12lts_202308026StatusE(ptr noundef nonnull align 1 dereferenceable(1) %ref.tmp19, ptr noundef %22, ptr noundef nonnull %agg.tmp22)
          to label %invoke.cont24 unwind label %lpad23

invoke.cont24:                                    ; preds = %_ZN4absl12lts_202308026StatusC2ERKS1_.exit26
  %26 = load i64, ptr %agg.tmp22, align 8
  %and.i.i.i27 = and i64 %26, 1
  %cmp.i.i.i28 = icmp eq i64 %and.i.i.i27, 0
  br i1 %cmp.i.i.i28, label %if.end25, label %if.then.i.i29

if.then.i.i29:                                    ; preds = %invoke.cont24
  invoke void @_ZN4absl12lts_202308026Status15UnrefNonInlinedEm(i64 noundef %26)
          to label %if.end25 unwind label %terminate.lpad.i30

terminate.lpad.i30:                               ; preds = %if.then.i.i29
  %27 = landingpad { ptr, i32 }
          catch ptr null
  %28 = extractvalue { ptr, i32 } %27, 0
  call void @__clang_call_terminate(ptr %28) #24
  unreachable

lpad23:                                           ; preds = %_ZN4absl12lts_202308026StatusC2ERKS1_.exit26
  %29 = landingpad { ptr, i32 }
          cleanup
  br label %eh.resume

if.end25:                                         ; preds = %if.then.i.i29, %invoke.cont24, %if.end13
  %30 = load ptr, ptr %batch, align 8
  %cmp.not = icmp eq ptr %30, null
  br i1 %cmp.not, label %if.end32, label %if.then26

if.then26:                                        ; preds = %if.end25
  %31 = load i64, ptr %error, align 8
  store i64 %31, ptr %agg.tmp29, align 8
  %and.i.i.i32 = and i64 %31, 1
  %cmp.i.i.i33 = icmp eq i64 %and.i.i.i32, 0
  br i1 %cmp.i.i.i33, label %_ZN4absl12lts_202308026StatusC2ERKS1_.exit36, label %if.then.i.i34

if.then.i.i34:                                    ; preds = %if.then26
  %sub.i.i.i35 = add nsw i64 %31, -1
  %32 = inttoptr i64 %sub.i.i.i35 to ptr
  %33 = atomicrmw add ptr %32, i32 1 monotonic, align 4
  br label %_ZN4absl12lts_202308026StatusC2ERKS1_.exit36

_ZN4absl12lts_202308026StatusC2ERKS1_.exit36:     ; preds = %if.then26, %if.then.i.i34
  invoke void @_ZN9grpc_core7ExecCtx3RunERKNS_13DebugLocationEP12grpc_closureN4absl12lts_202308026StatusE(ptr noundef nonnull align 1 dereferenceable(1) %ref.tmp27, ptr noundef nonnull %30, ptr noundef nonnull %agg.tmp29)
          to label %invoke.cont31 unwind label %lpad30

invoke.cont31:                                    ; preds = %_ZN4absl12lts_202308026StatusC2ERKS1_.exit36
  %34 = load i64, ptr %agg.tmp29, align 8
  %and.i.i.i37 = and i64 %34, 1
  %cmp.i.i.i38 = icmp eq i64 %and.i.i.i37, 0
  br i1 %cmp.i.i.i38, label %if.end32, label %if.then.i.i39

if.then.i.i39:                                    ; preds = %invoke.cont31
  invoke void @_ZN4absl12lts_202308026Status15UnrefNonInlinedEm(i64 noundef %34)
          to label %if.end32 unwind label %terminate.lpad.i40

terminate.lpad.i40:                               ; preds = %if.then.i.i39
  %35 = landingpad { ptr, i32 }
          catch ptr null
  %36 = extractvalue { ptr, i32 } %35, 0
  call void @__clang_call_terminate(ptr %36) #24
  unreachable

lpad30:                                           ; preds = %_ZN4absl12lts_202308026StatusC2ERKS1_.exit36
  %37 = landingpad { ptr, i32 }
          cleanup
  br label %eh.resume

if.end32:                                         ; preds = %if.then.i.i39, %invoke.cont31, %if.end25
  ret void

eh.resume:                                        ; preds = %lpad30, %lpad23, %lpad11, %lpad
  %agg.tmp29.sink = phi ptr [ %agg.tmp29, %lpad30 ], [ %agg.tmp22, %lpad23 ], [ %agg.tmp10, %lpad11 ], [ %agg.tmp, %lpad ]
  %.pn = phi { ptr, i32 } [ %37, %lpad30 ], [ %29, %lpad23 ], [ %19, %lpad11 ], [ %9, %lpad ]
  call void @_ZN4absl12lts_202308026StatusD2Ev(ptr noundef nonnull align 8 dereferenceable(8) %agg.tmp29.sink) #23
  resume { ptr, i32 } %.pn
}